(dp0
I0
(lp1
sI32
(lp2
S'-%p1'
p3
asI4
(lp4
sI16
(lp5
S'-%p1'
p6
asI28
(lp7
S'-%p1'
p8
asI8
(lp9
S'%p1'
p10
asI12
(lp11
S'-%p1'
p12
asI44
(lp13
S'-%p1'
p14
aS'%p2'
p15
asI52
(lp16
S'-%p1'
p17
ag15
asI64
(lp18
S'-%p1'
p19
ag15
asI24
(lp20
S'-%p1'
p21
asI48
(lp22
S'-%p1'
p23
ag15
asI40
(lp24
S'-%p1'
p25
asI20
(lp26
S'-%p1'
p27
asI80
(lp28
sI76
(lp29
S'-%p1'
p30
aS'%p2'
p31
asI56
(lp32
S'-%p1'
p33
ag15
asI68
(lp34
S'-%p1'
p35
ag15
asI60
(lp36
S'-%p1'
p37
ag15
asI72
(lp38
S'-%p1'
p39
ag15
asI36
(lp40
S'-%p1'
p41
as.