(dp0
I0
(lp1
sI4
(lp2
sI8
(lp3
sI12
(lp4
sI16
(lp5
sI20
(lp6
S'%p1'
p7
asI24
(lp8
S'-%p1'
p9
asI28
(lp10
S'-%p1'
p11
asI32
(lp12
S'-%p1'
p13
asI36
(lp14
S'-%p1'
p15
asI40
(lp16
sI44
(lp17
S'%p2'
p18
asI48
(lp19
S'-%p2'
p20
asI52
(lp21
S'-%p2'
p22
asI56
(lp23
S'-%p2'
p24
asI60
(lp25
S'-%p2'
p26
asI64
(lp27
sI68
(lp28
S'%p3'
p29
asI72
(lp30
S'-%p3'
p31
asI76
(lp32
S'-%p3'
p33
asI80
(lp34
S'-%p3'
p35
asI84
(lp36
S'-%p3'
p37
as.