(dp0
I0
(lp1
sI32
(lp2
sI4
(lp3
sI68
(lp4
S'-%p1'
p5
asI48
(lp6
S'%p1'
p7
asI8
(lp8
sI44
(lp9
g7
asI12
(lp10
sI64
(lp11
g5
asI60
(lp12
g5
asI16
(lp13
sI40
(lp14
g5
asI20
(lp15
sI56
(lp16
g7
asI24
(lp17
sI36
(lp18
g7
asI28
(lp19
sI72
(lp20
sI52
(lp21
g7
as.