(lp0
(lp1
S'ld.param.u64'
p2
aS's0'
p3
aS'_Z13add_neighbourPii_param_0'
p4
aa(lp5
S'ld.param.u32'
p6
aS's1'
p7
aS'_Z13add_neighbourPii_param_1'
p8
aa(lp9
S'cvta.to.global.u64'
p10
aS's2'
p11
ag3
aa(lp12
S'mov.u32'
p13
aS's3'
p14
aS'%tid.x'
p15
aa(lp16
S'add.s32'
p17
aS's4'
p18
ag14
ag7
aa(lp19
S'mul.wide.s32'
p20
aS'%rd3'
p21
aS'%r3'
p22
aS'4'
p23
aa(lp24
S'add.s64'
p25
aS's5'
p26
ag11
aS'%rd3'
p27
aa(lp28
S'ld.global.u32'
p29
aS's6'
p30
ag26
aa(lp31
S'mul.wide.s32'
p32
aS'%rd5'
p33
aS'%r2'
p34
ag23
aa(lp35
S'add.s64'
p36
aS's7'
p37
ag11
aS'%rd5'
p38
aa(lp39
S'ld.global.u32'
p40
aS's8'
p41
ag37
aa(lp42
S'add.s32'
p43
aS's9'
p44
ag41
ag30
aa(lp45
S'st.global.u32'
p46
ag37
ag44
aa(lp47
S'ret'
p48
aa(lp49
S'}'
p50
aa(lp51
a(lp52
a.