(dp0
S'%tid.x'
p1
S'.b32'
p2
sS's9'
p3
S'.b32'
p4
sS's8'
p5
g4
sS's3'
p6
g4
sS's2'
p7
S'.b64'
p8
sS's1'
p9
g4
sS's0'
p10
g8
sS's7'
p11
g8
sS's6'
p12
g4
sS's5'
p13
g8
sS's4'
p14
g4
sS'_Z13add_neighbourPii_param_1'
p15
S'.u32'
p16
sS'_Z13add_neighbourPii_param_0'
p17
S'.u64'
p18
sS'%r4'
p19
g4
sS'%r5'
p20
g4
sS'%r6'
p21
g4
sS'%r0'
p22
g4
sS'%r1'
p23
g4
sS'%r2'
p24
g4
sS'%r3'
p25
g4
sS'%rd5'
p26
g8
sS'%rd4'
p27
g8
sS'%rd6'
p28
g8
sS'%rd1'
p29
g8
sS'%rd0'
p30
g8
sS'%rd3'
p31
g8
sS'%rd2'
p32
g8
s.