(dp0
S'%rd10'
p1
S'.b64'
p2
sS'_Z1fPiS__param_0'
p3
S'.u64'
p4
sS'_Z1fPiS__param_1'
p5
S'.u64'
p6
sS'%tid.x'
p7
S'.b32'
p8
sS'%rd9'
p9
g2
sS'%rd8'
p10
g2
sS'%r4'
p11
S'.b32'
p12
sS'%r5'
p13
g12
sS'%r6'
p14
g12
sS'%r7'
p15
g12
sS'%r0'
p16
g12
sS'%r1'
p17
g12
sS'%r2'
p18
g12
sS'%r3'
p19
g12
sS'%rd5'
p20
g2
sS'%rd4'
p21
g2
sS'%rd7'
p22
g2
sS'%rd6'
p23
g2
sS'%rd1'
p24
g2
sS'%rd0'
p25
g2
sS'%rd3'
p26
g2
sS'%rd2'
p27
g2
s.