(dp0
S'%r12'
p1
S'.b32'
p2
sS'%r13'
p3
g2
sS'%r10'
p4
g2
sS'%r11'
p5
g2
sS'%r8'
p6
g2
sS'%rd0'
p7
S'.b64'
p8
sS'%p0'
p9
S'.pred'
p10
sS'%rd2'
p11
g8
sS'%tid.x'
p12
S'.b32'
p13
sS'%r4'
p14
g2
sS'%r5'
p15
g2
sS'%r6'
p16
g2
sS'%r7'
p17
g2
sS'%r0'
p18
g2
sS'%r1'
p19
g2
sS'%r2'
p20
g2
sS'%r3'
p21
g2
sS'%rd4'
p22
g8
sS'%rd1'
p23
g8
sS'%r9'
p24
g2
sS'%rd3'
p25
g8
sS'%p1'
p26
g10
sS'_Z3dotPi_param_0'
p27
S'.u64'
p28
s.