(dp0
S'%r8'
p1
I8
sS'bar_counter_exit'
p2
I12
sS'bar_state'
p3
I13
sS'r1'
p4
I10
sS'%r4'
p5
I0
sS'%r5'
p6
I1
sS'%r6'
p7
I2
sS'%r7'
p8
I3
sS'%r0'
p9
I4
sS'%r1'
p10
I5
sS'r2'
p11
I6
sS'%r3'
p12
I7
sS'%rd5'
p13
I19
sS'%rd4'
p14
I18
sS'%rd7'
p15
I21
sS'%rd6'
p16
I20
sS'%rd1'
p17
I15
sS'%rd0'
p18
I14
sS'%rd3'
p19
I17
sS'%rd2'
p20
I16
sS'%rd8'
p21
I22
sS'bar_counter_enter'
p22
I11
sS'%r2'
p23
I9
s.