(dp0
S'%r4'
p1
I0
sS'%r5'
p2
I1
sS'%r6'
p3
I2
sS'%r7'
p4
I3
sS'%r0'
p5
I4
sS'%r1'
p6
I5
sS'r2'
p7
I6
sS'%r3'
p8
I7
sS'%r8'
p9
I8
sS'bar_counter_exit'
p10
I12
sS'bar_state'
p11
I13
sS'bar_counter_enter'
p12
I11
sS'%r2'
p13
I9
sS'r1'
p14
I10
s.