(dp0
S'%tid.x'
p1
S'.b32'
p2
sS'%r4'
p3
S'.b32'
p4
sS'%r6'
p5
g4
sS'%r0'
p6
g4
sS'%r1'
p7
g4
sS'%r2'
p8
g4
sS'%r3'
p9
g4
sS'%rd5'
p10
S'.b64'
p11
sS'%rd4'
p12
g11
sS'%rd6'
p13
g11
sS'%rd1'
p14
g11
sS'%rd0'
p15
g11
sS'%rd3'
p16
g11
sS'%rd2'
p17
g11
sS'_Z13add_neighbourPii_param_1'
p18
S'.u32'
p19
sS'_Z13add_neighbourPii_param_0'
p20
S'.u64'
p21
sS'%r5'
p22
g4
s.