(lp0
(lp1
a(lp2
a(lp3
S'ld.param.u64'
p4
aS'%rd1'
p5
aS'_Z13add_neighbourPii_param_0'
p6
aa(lp7
S'ld.param.u32'
p8
aS'%r1'
p9
aS'_Z13add_neighbourPii_param_1'
p10
aa(lp11
S'cvta.to.global.u64'
p12
aS'%rd2'
p13
aS'%rd1'
p14
aa(lp15
S'mov.u32'
p16
aS'%r2'
p17
aS'%tid.x'
p18
aa(lp19
S'add.s32'
p20
aS'%r3'
p21
aS'%r2'
p22
aS'%r1'
p23
aa(lp24
S'mul.wide.s32'
p25
aS'%rd3'
p26
aS'%r3'
p27
aS'4'
p28
aa(lp29
S'add.s64'
p30
aS'%rd4'
p31
aS'%rd2'
p32
aS'%rd3'
p33
aa(lp34
S'ld.global.u32'
p35
aS'%r4'
p36
aS'%rd4'
p37
aa(lp38
S'mul.wide.s32'
p39
aS'%rd5'
p40
aS'%r2'
p41
ag28
aa(lp42
S'add.s64'
p43
aS'%rd6'
p44
aS'%rd2'
p45
aS'%rd5'
p46
aa(lp47
S'ld.global.u32'
p48
aS'%r5'
p49
aS'%rd6'
p50
aa(lp51
S'add.s32'
p52
aS'%r6'
p53
aS'%r5'
p54
aS'%r4'
p55
aa(lp56
S'st.global.u32'
p57
aS'%rd6'
p58
aS'%r6'
p59
aa(lp60
S'ret'
p61
aa(lp62
S'}'
p63
aa(lp64
a(lp65
a.