(dp0
S'%tid.x'
p1
S'.b32'
p2
sS's9'
p3
S'.b64'
p4
sS's8'
p5
g4
sS's3'
p6
S'.b32'
p7
sS's2'
p8
g4
sS's1'
p9
g7
sS's0'
p10
g4
sS's7'
p11
g7
sS's6'
p12
g4
sS's5'
p13
g4
sS's4'
p14
g7
sS'_Z13add_neighbourPii_param_1'
p15
S'.u32'
p16
sS'_Z13add_neighbourPii_param_0'
p17
S'.u64'
p18
sS's11'
p19
g7
sS's10'
p20
g7
sS'%r4'
p21
g7
sS'%r5'
p22
g7
sS'%r6'
p23
g7
sS'%r0'
p24
g7
sS'%r1'
p25
g7
sS'%r2'
p26
g7
sS'%r3'
p27
g7
sS'%rd5'
p28
g4
sS'%rd4'
p29
g4
sS'%rd6'
p30
g4
sS'%rd1'
p31
g4
sS'%rd0'
p32
g4
sS'%rd3'
p33
g4
sS'%rd2'
p34
g4
s.