(lp0
(lp1
S'ld.param.u64'
p2
aS's0'
p3
aS'_Z13add_neighbourPii_param_0'
p4
aa(lp5
S'ld.param.u32'
p6
aS's1'
p7
aS'_Z13add_neighbourPii_param_1'
p8
aa(lp9
S'cvta.to.global.u64'
p10
aS's2'
p11
ag3
aa(lp12
S'mov.u32'
p13
aS's3'
p14
aS'%tid.x'
p15
aa(lp16
S'add.s32'
p17
aS's4'
p18
ag14
ag7
aa(lp19
S'mul.wide.s32'
p20
aS's5'
p21
ag18
aS'4'
p22
aa(lp23
S'add.s64'
p24
aS's6'
p25
ag11
ag21
aa(lp26
S'ld.global.u32'
p27
aS's7'
p28
ag25
aa(lp29
S'mul.wide.s32'
p30
aS's8'
p31
ag14
ag22
aa(lp32
S'add.s64'
p33
aS's9'
p34
ag11
ag31
aa(lp35
S'ld.global.u32'
p36
aS's10'
p37
ag34
aa(lp38
S'add.s32'
p39
aS's11'
p40
ag37
ag28
aa(lp41
S'st.global.u32'
p42
ag34
ag40
aa(lp43
S'ret'
p44
aa(lp45
S'}'
p46
aa(lp47
a(lp48
a.