(dp0
I0
(lp1
sI32
(lp2
S'-%p1'
p3
asI4
(lp4
sI56
(lp5
g3
aS'%p2'
p6
asI68
(lp7
g3
ag6
asI48
(lp8
g3
ag6
asI80
(lp9
sI44
(lp10
g3
ag6
asI12
(lp11
g3
asI64
(lp12
g3
ag6
asI60
(lp13
g3
ag6
asI16
(lp14
g3
asI8
(lp15
S'%p1'
p16
asI52
(lp17
g3
ag6
asI76
(lp18
sI40
(lp19
g3
asI24
(lp20
g3
asI20
(lp21
g3
asI28
(lp22
g3
asI72
(lp23
g3
ag6
asI36
(lp24
g3
as.