(dp0
I0
(lp1
sI32
(lp2
S'-%p1'
p3
asI4
(lp4
sI48
(lp5
S'-%p1'
p6
asI8
(lp7
sI44
(lp8
S'-%p1'
p9
asI12
(lp10
sI16
(lp11
sI40
(lp12
S'-%p1'
p13
asI20
(lp14
sI56
(lp15
S'-%p1'
p16
asI24
(lp17
S'%p1'
p18
asI36
(lp19
S'-%p1'
p20
asI28
(lp21
S'-%p1'
p22
asI52
(lp23
S'-%p1'
p24
as.