(dp0
I64
(lp1
S'%p2'
p2
asI112
(lp3
S'%p4'
p4
asI36
(lp5
S'%p1'
p6
asI92
(lp7
S'%p3'
p8
asI108
(lp9
g4
asI80
(lp10
g8
asI56
(lp11
g2
asI52
(lp12
g2
asI24
(lp13
g6
asI84
(lp14
g8
asI28
(lp15
g6
asI120
(lp16
g4
as.