(dp0
I0
(lp1
sI4
(lp2
sI8
(lp3
sI12
(lp4
sI16
(lp5
sI20
(lp6
S'-%p1'
p7
asI24
(lp8
S'-%p1'
p9
asI28
(lp10
S'-%p1'
p11
asI32
(lp12
S'-%p1'
p13
asI36
(lp14
S'-%p1'
p15
asI40
(lp16
S'-%p1'
p17
asI44
(lp18
sI48
(lp19
S'-%p2'
p20
asI52
(lp21
S'-%p2'
p22
asI56
(lp23
S'-%p2'
p24
asI60
(lp25
S'-%p2'
p26
asI64
(lp27
S'-%p2'
p28
asI68
(lp29
S'-%p2'
p30
asI72
(lp31
sI76
(lp32
S'-%p3'
p33
asI80
(lp34
S'-%p3'
p35
asI84
(lp36
S'-%p3'
p37
asI88
(lp38
S'-%p3'
p39
asI92
(lp40
S'-%p3'
p41
asI96
(lp42
S'-%p3'
p43
asI100
(lp44
sI104
(lp45
S'-%p4'
p46
asI108
(lp47
S'-%p4'
p48
asI112
(lp49
S'-%p4'
p50
asI116
(lp51
S'-%p4'
p52
asI120
(lp53
S'-%p4'
p54
asI124
(lp55
S'-%p4'
p56
as.