(lp0
(lp1
a(lp2
S'cvta.to.global.u64'
p3
aS'%rd3'
p4
aS'%rd2'
p5
aa(lp6
S'mov.u32'
p7
aS'%r1'
p8
aS'%tid.x'
p9
aa(lp10
S'mul.wide.s32'
p11
aS'%rd4'
p12
aS'%r1'
p13
aS'4'
p14
aa(lp15
S'add.s64'
p16
aS'%rd1'
p17
aS'%rd3'
p18
aS'%rd4'
p19
aa(lp20
S'setp.gt.s32'
p21
aS'%p1'
p22
aS'%r1'
p23
aS'7'
p24
aa(lp25
S'@'
p26
aS'%p1'
p27
aS'bra'
p28
aS'BB0_2'
p29
aa(lp30
a(lp31
S'ld.global.u32'
p32
aS'%r2'
p33
aS'%rd1'
p34
aa(lp35
S'ld.global.u32'
p36
aS'%r3'
p37
aS'%rd1+32'
p38
aa(lp39
S'add.s32'
p40
aS'%r4'
p41
aS'%r2'
p42
aS'%r3'
p43
aa(lp44
S'st.global.u32'
p45
aS'%rd1'
p46
aS'%r4'
p47
aa(lp48
S'bar.sync'
p49
aS'0'
p50
aa(lp51
a(lp52
S'BB0_2:'
p53
aa(lp54
S'setp.gt.s32'
p55
aS'%p2'
p56
aS'%r1'
p57
aS'3'
p58
aa(lp59
g26
aS'%p2'
p60
aS'bra'
p61
aS'BB0_4'
p62
aa(lp63
a(lp64
S'ld.global.u32'
p65
aS'%r5'
p66
aS'%rd1'
p67
aa(lp68
S'ld.global.u32'
p69
aS'%r6'
p70
aS'%rd1+16'
p71
aa(lp72
S'add.s32'
p73
aS'%r7'
p74
aS'%r5'
p75
aS'%r6'
p76
aa(lp77
S'st.global.u32'
p78
aS'%rd1'
p79
aS'%r7'
p80
aa(lp81
S'bar.sync'
p82
ag50
aa(lp83
a(lp84
S'BB0_4:'
p85
aa(lp86
S'setp.gt.s32'
p87
aS'%p3'
p88
aS'%r1'
p89
aS'1'
p90
aa(lp91
g26
aS'%p3'
p92
aS'bra'
p93
aS'BB0_6'
p94
aa(lp95
a(lp96
S'ld.global.u32'
p97
aS'%r8'
p98
aS'%rd1'
p99
aa(lp100
S'ld.global.u32'
p101
aS'%r9'
p102
aS'%rd1+8'
p103
aa(lp104
S'add.s32'
p105
aS'%r10'
p106
aS'%r8'
p107
aS'%r9'
p108
aa(lp109
S'st.global.u32'
p110
aS'%rd1'
p111
aS'%r10'
p112
aa(lp113
S'bar.sync'
p114
ag50
aa(lp115
a(lp116
S'BB0_6:'
p117
aa(lp118
S'setp.gt.s32'
p119
aS'%p4'
p120
aS'%r1'
p121
ag50
aa(lp122
g26
aS'%p4'
p123
aS'bra'
p124
aS'BB0_8'
p125
aa(lp126
a(lp127
S'ld.global.u32'
p128
aS'%r11'
p129
aS'%rd1'
p130
aa(lp131
S'ld.global.u32'
p132
aS'%r12'
p133
aS'%rd1+4'
p134
aa(lp135
S'add.s32'
p136
aS'%r13'
p137
aS'%r11'
p138
aS'%r12'
p139
aa(lp140
S'st.global.u32'
p141
aS'%rd1'
p142
aS'%r13'
p143
aa(lp144
S'bar.sync'
p145
ag50
aa(lp146
a(lp147
S'BB0_8:'
p148
aa(lp149
S'ret'
p150
aa(lp151
S'}'
p152
aa(lp153
a(lp154
a.