(dp0
S'_Z6reducePi_param_0'
p1
S'.u64'
p2
sS'%r13'
p3
S'.b32'
p4
sS'%r10'
p5
g4
sS'%r11'
p6
g4
sS'%p2'
p7
S'.pred'
p8
sS'%rd0'
p9
S'.b64'
p10
sS'%rd3'
p11
g10
sS'%r12'
p12
g4
sS'%rd2'
p13
g10
sS'%tid.x'
p14
S'.b32'
p15
sS'%rd1'
p16
g10
sS'%r9'
p17
g4
sS'%r4'
p18
g4
sS'%r5'
p19
g4
sS'%r6'
p20
g4
sS'%r7'
p21
g4
sS'%r0'
p22
g4
sS'%r1'
p23
g4
sS'%r2'
p24
g4
sS'%r3'
p25
g4
sS'%rd4'
p26
g10
sS'%p4'
p27
g8
sS'%r8'
p28
g4
sS'%p3'
p29
g8
sS'%p0'
p30
g8
sS'%p1'
p31
g8
s.