(dp0
S'%tid.x'
p1
S'.b32'
p2
sS'%r4'
p3
S'.b32'
p4
sS'%r6'
p5
g4
sS'%r7'
p6
g4
sS'%r0'
p7
g4
sS'%r1'
p8
g4
sS'%r2'
p9
g4
sS'%r3'
p10
g4
sS'%rd1'
p11
S'.b64'
p12
sS'%r8'
p13
g4
sS'%rd0'
p14
g12
sS'%p0'
p15
S'.pred'
p16
sS'%p1'
p17
g16
sS'%rd3'
p18
g12
sS'%rd4'
p19
g12
sS'%r5'
p20
g4
sS'%rd2'
p21
g12
sS'_Z6branchPi_param_0'
p22
S'.u64'
p23
s.