S'aes'
p1
.(dp1
S'aes'
p2
(idummyILA
collector
p3
(dp4
S'fetch_valid'
p5
(iresultObj
resultObj
p6
(dp7
S'expr'
p8
S'(cmd) == (2)'
p9
sS'smtExpr'
p10
NsbsS'ufsm'
p11
(dp12
S'aes_compute'
p13
(iresultObj
resultObj
p14
(dp15
g8
S'(aes_state) != (0)'
p16
sg10
NsbssS'state_list'
p17
(lp18
(S'cmd'
p19
I2
tp20
a(S'cmdaddr'
p21
I16
tp22
a(S'cmddata'
p23
I8
tp24
a(S'aes_state'
p25
I2
tp26
a(S'aes_addr'
p27
I16
tp28
a(S'aes_len'
p29
I16
tp30
a(S'aes_ctr'
p31
I128
tp32
a(S'aes_key0'
p33
I128
tp34
asS'name'
p35
g2
sS'stageList'
p36
(lp37
sS'mem_list'
p38
(lp39
(S'XRAM'
p40
I16
I8
tp41
asS'decode_exprs'
p42
(lp43
(iresultObj
resultObj
p44
(dp45
g8
S'((cmd) == (2)) && ((cmdaddr) == (65280))'
p46
sg10
Nsba(iresultObj
resultObj
p47
(dp48
g8
S'((cmd) == (2)) && ((cmdaddr) == (65281))'
p49
sg10
Nsba(iresultObj
resultObj
p50
(dp51
g8
S'((cmd) == (2)) && ((cmdaddr) == (65282))'
p52
sg10
Nsba(iresultObj
resultObj
p53
(dp54
g8
S'((cmd) == (2)) && ((cmdaddr) == (65283))'
p55
sg10
Nsba(iresultObj
resultObj
p56
(dp57
g8
S'((cmd) == (2)) && ((cmdaddr) == (65284))'
p58
sg10
Nsba(iresultObj
resultObj
p59
(dp60
g8
S'((cmd) == (2)) && ((cmdaddr) == (65285))'
p61
sg10
Nsba(iresultObj
resultObj
p62
(dp63
g8
S'((cmd) == (2)) && ((cmdaddr) == (65286))'
p64
sg10
Nsba(iresultObj
resultObj
p65
(dp66
g8
S'((cmd) == (2)) && ((cmdaddr) == (65287))'
p67
sg10
Nsba(iresultObj
resultObj
p68
(dp69
g8
S'((cmd) == (2)) && ((cmdaddr) == (65288))'
p70
sg10
Nsba(iresultObj
resultObj
p71
(dp72
g8
S'((cmd) == (2)) && ((cmdaddr) == (65289))'
p73
sg10
Nsba(iresultObj
resultObj
p74
(dp75
g8
S'((cmd) == (2)) && ((cmdaddr) == (65290))'
p76
sg10
Nsba(iresultObj
resultObj
p77
(dp78
g8
S'((cmd) == (2)) && ((cmdaddr) == (65291))'
p79
sg10
Nsba(iresultObj
resultObj
p80
(dp81
g8
S'((cmd) == (2)) && ((cmdaddr) == (65292))'
p82
sg10
Nsba(iresultObj
resultObj
p83
(dp84
g8
S'((cmd) == (2)) && ((cmdaddr) == (65293))'
p85
sg10
Nsba(iresultObj
resultObj
p86
(dp87
g8
S'((cmd) == (2)) && ((cmdaddr) == (65294))'
p88
sg10
Nsba(iresultObj
resultObj
p89
(dp90
g8
S'((cmd) == (2)) && ((cmdaddr) == (65295))'
p91
sg10
Nsba(iresultObj
resultObj
p92
(dp93
g8
S'((cmd) == (2)) && ((cmdaddr) == (65296))'
p94
sg10
Nsba(iresultObj
resultObj
p95
(dp96
g8
S'((cmd) == (2)) && ((cmdaddr) == (65297))'
p97
sg10
Nsba(iresultObj
resultObj
p98
(dp99
g8
S'((cmd) == (2)) && ((cmdaddr) == (65298))'
p100
sg10
Nsba(iresultObj
resultObj
p101
(dp102
g8
S'((cmd) == (2)) && ((cmdaddr) == (65299))'
p103
sg10
Nsba(iresultObj
resultObj
p104
(dp105
g8
S'((cmd) == (2)) && ((cmdaddr) == (65300))'
p106
sg10
Nsba(iresultObj
resultObj
p107
(dp108
g8
S'((cmd) == (2)) && ((cmdaddr) == (65301))'
p109
sg10
Nsba(iresultObj
resultObj
p110
(dp111
g8
S'((cmd) == (2)) && ((cmdaddr) == (65302))'
p112
sg10
Nsba(iresultObj
resultObj
p113
(dp114
g8
S'((cmd) == (2)) && ((cmdaddr) == (65303))'
p115
sg10
Nsba(iresultObj
resultObj
p116
(dp117
g8
S'((cmd) == (2)) && ((cmdaddr) == (65304))'
p118
sg10
Nsba(iresultObj
resultObj
p119
(dp120
g8
S'((cmd) == (2)) && ((cmdaddr) == (65305))'
p121
sg10
Nsba(iresultObj
resultObj
p122
(dp123
g8
S'((cmd) == (2)) && ((cmdaddr) == (65306))'
p124
sg10
Nsba(iresultObj
resultObj
p125
(dp126
g8
S'((cmd) == (2)) && ((cmdaddr) == (65307))'
p127
sg10
Nsba(iresultObj
resultObj
p128
(dp129
g8
S'((cmd) == (2)) && ((cmdaddr) == (65308))'
p130
sg10
Nsba(iresultObj
resultObj
p131
(dp132
g8
S'((cmd) == (2)) && ((cmdaddr) == (65309))'
p133
sg10
Nsba(iresultObj
resultObj
p134
(dp135
g8
S'((cmd) == (2)) && ((cmdaddr) == (65310))'
p136
sg10
Nsba(iresultObj
resultObj
p137
(dp138
g8
S'((cmd) == (2)) && ((cmdaddr) == (65311))'
p139
sg10
Nsba(iresultObj
resultObj
p140
(dp141
g8
S'((cmd) == (2)) && ((cmdaddr) == (65312))'
p142
sg10
Nsba(iresultObj
resultObj
p143
(dp144
g8
S'((cmd) == (2)) && ((cmdaddr) == (65313))'
p145
sg10
Nsba(iresultObj
resultObj
p146
(dp147
g8
S'((cmd) == (2)) && ((cmdaddr) == (65314))'
p148
sg10
Nsba(iresultObj
resultObj
p149
(dp150
g8
S'((cmd) == (2)) && ((cmdaddr) == (65315))'
p151
sg10
Nsba(iresultObj
resultObj
p152
(dp153
g8
S'((cmd) == (2)) && ((cmdaddr) == (65316))'
p154
sg10
Nsba(iresultObj
resultObj
p155
(dp156
g8
S'((cmd) == (2)) && ((cmdaddr) == (65317))'
p157
sg10
Nsba(iresultObj
resultObj
p158
(dp159
g8
S'((cmd) == (2)) && ((cmdaddr) == (65318))'
p160
sg10
Nsba(iresultObj
resultObj
p161
(dp162
g8
S'((cmd) == (2)) && ((cmdaddr) == (65319))'
p163
sg10
Nsba(iresultObj
resultObj
p164
(dp165
g8
S'((cmd) == (2)) && ((cmdaddr) == (65320))'
p166
sg10
Nsba(iresultObj
resultObj
p167
(dp168
g8
S'((cmd) == (2)) && ((cmdaddr) == (65321))'
p169
sg10
Nsba(iresultObj
resultObj
p170
(dp171
g8
S'((cmd) == (2)) && ((cmdaddr) == (65322))'
p172
sg10
Nsba(iresultObj
resultObj
p173
(dp174
g8
S'((cmd) == (2)) && ((cmdaddr) == (65323))'
p175
sg10
Nsba(iresultObj
resultObj
p176
(dp177
g8
S'((cmd) == (2)) && ((cmdaddr) == (65324))'
p178
sg10
Nsba(iresultObj
resultObj
p179
(dp180
g8
S'((cmd) == (2)) && ((cmdaddr) == (65325))'
p181
sg10
Nsba(iresultObj
resultObj
p182
(dp183
g8
S'((cmd) == (2)) && ((cmdaddr) == (65326))'
p184
sg10
Nsba(iresultObj
resultObj
p185
(dp186
g8
S'((cmd) == (2)) && ((cmdaddr) == (65327))'
p187
sg10
Nsba(iresultObj
resultObj
p188
(dp189
g8
S'((cmd) == (2)) && ((cmdaddr) == (65328))'
p190
sg10
Nsba(iresultObj
resultObj
p191
(dp192
g8
S'((cmd) == (2)) && ((cmdaddr) == (65329))'
p193
sg10
Nsba(iresultObj
resultObj
p194
(dp195
g8
S'((cmd) == (2)) && ((cmdaddr) == (65330))'
p196
sg10
Nsba(iresultObj
resultObj
p197
(dp198
g8
S'((cmd) == (2)) && ((cmdaddr) == (65331))'
p199
sg10
Nsba(iresultObj
resultObj
p200
(dp201
g8
S'((cmd) == (2)) && ((cmdaddr) == (65332))'
p202
sg10
Nsba(iresultObj
resultObj
p203
(dp204
g8
S'((cmd) == (2)) && ((cmdaddr) == (65333))'
p205
sg10
Nsba(iresultObj
resultObj
p206
(dp207
g8
S'((cmd) == (2)) && ((cmdaddr) == (65334))'
p208
sg10
Nsba(iresultObj
resultObj
p209
(dp210
g8
S'((cmd) == (2)) && ((cmdaddr) == (65335))'
p211
sg10
Nsba(iresultObj
resultObj
p212
(dp213
g8
S'((cmd) == (2)) && ((cmdaddr) == (65336))'
p214
sg10
Nsba(iresultObj
resultObj
p215
(dp216
g8
S'((cmd) == (2)) && ((cmdaddr) == (65337))'
p217
sg10
Nsba(iresultObj
resultObj
p218
(dp219
g8
S'((cmd) == (2)) && ((cmdaddr) == (65338))'
p220
sg10
Nsba(iresultObj
resultObj
p221
(dp222
g8
S'((cmd) == (2)) && ((cmdaddr) == (65339))'
p223
sg10
Nsba(iresultObj
resultObj
p224
(dp225
g8
S'((cmd) == (2)) && ((cmdaddr) == (65340))'
p226
sg10
Nsba(iresultObj
resultObj
p227
(dp228
g8
S'((cmd) == (2)) && ((cmdaddr) == (65341))'
p229
sg10
Nsba(iresultObj
resultObj
p230
(dp231
g8
S'((cmd) == (2)) && ((cmdaddr) == (65342))'
p232
sg10
Nsba(iresultObj
resultObj
p233
(dp234
g8
S'((cmd) == (2)) && ((cmdaddr) == (65343))'
p235
sg10
NsbasS'stateConnection'
p236
(dp237
g25
g13
sg40
g13
ssS'usedParentStates'
p238
(lp239
g40
asS'enable_parameterized_synthesis'
p240
I1
sS'fetch_expr'
p241
(iresultObj
resultObj
p242
(dp243
g8
S'{cmd,cmdaddr,cmddata}'
p244
sg10
NsbsS'pure_stateList'
p245
(lp246
g25
ag27
ag29
ag31
ag33
asS'topModule'
p247
S''
sS'VerilogFile'
p248
S''
sS'port'
p249
(lp250
g19
ag21
ag23
asS'refineMapName'
p251
S''
sbsg13
(idummyILA
collector
p252
(dp253
g11
(dp254
sg17
(lp255
g20
ag22
ag24
ag26
ag28
ag30
ag32
ag34
a(S'rd_data'
p256
I128
tp257
a(S'enc_data'
p258
I128
tp259
a(S'blk_cnt'
p260
I16
tp261
a(S'uaes_ctr'
p262
I128
tp263
asg35
g13
sg36
(lp264
sg38
(lp265
g41
asg42
(lp266
(iresultObj
resultObj
p267
(dp268
g8
S'(aes_state) == (1)'
p269
sg10
Nsba(iresultObj
resultObj
p270
(dp271
g8
S'(aes_state) == (2)'
p272
sg10
Nsba(iresultObj
resultObj
p273
(dp274
g8
S'(aes_state) == (3)'
p275
sg10
Nsbasg236
(dp276
sg238
(lp277
g31
ag25
asg241
(iresultObj
resultObj
p278
(dp279
g8
g25
sg10
Nsbsg245
(lp280
g25
ag27
ag29
ag31
ag33
ag256
ag258
ag260
ag262
asg247
S''
sg248
S''
sg249
(lp281
g19
ag21
ag23
asg251
S''
sbs.